target datalayout = "e-m:e-p270:32:32-p271:32:32-p272:64:64-i64:64-i128:128-f80:128-n8:16:32:64-S128"
target triple = "x86_64-unknown-linux-gnu"

%class.anon.158 = type { ptr }
%"class.llvh::StringRef" = type { ptr, i64 }

; Function Attrs: mustprogress nounwind uwtable
define internal void @"_ZZN6hermes3hbc22generateBytecodeModuleEPNS_6ModuleEPNS_8FunctionES4_RKNS_25BytecodeGenerationOptionsENS_8OptValueIjEEPNS_18SourceMapGeneratorESt10unique_ptrINS0_14BCProviderBaseESt14default_deleteISD_EEENK3$_2clEN4llvh9StringRefEb"(ptr noundef nonnull align 8 dereferenceable(8) %this, ptr %str.coerce0, i64 %str.coerce1, i1 noundef zeroext %isIdentifier) #0 align 2 {
entry:
  %str = alloca %"class.llvh::StringRef", align 8
  %this.addr = alloca ptr, align 8
  %isIdentifier.addr = alloca i8, align 1
  %agg.tmp = alloca %"class.llvh::StringRef", align 8
  %0 = getelementptr inbounds { ptr, i64 }, ptr %str, i32 0, i32 0
  store ptr %str.coerce0, ptr %0, align 8
  %1 = getelementptr inbounds { ptr, i64 }, ptr %str, i32 0, i32 1
  store i64 %str.coerce1, ptr %1, align 8
  store ptr %this, ptr %this.addr, align 8
  %frombool = zext i1 %isIdentifier to i8
  store i8 %frombool, ptr %isIdentifier.addr, align 1
  %this1 = load ptr, ptr %this.addr, align 8
  %2 = getelementptr inbounds %class.anon.158, ptr %this1, i32 0, i32 0
  %3 = load ptr, ptr %2, align 8
  call void @llvm.memcpy.p0.p0.i64(ptr align 8 %agg.tmp, ptr align 8 %str, i64 16, i1 false)
  %4 = load i8, ptr %isIdentifier.addr, align 1
  %tobool = trunc i8 %4 to i1
  %5 = getelementptr inbounds { ptr, i64 }, ptr %agg.tmp, i32 0, i32 0
  %6 = load ptr, ptr %5, align 8
  %7 = getelementptr inbounds { ptr, i64 }, ptr %agg.tmp, i32 0, i32 1
  %8 = load i64, ptr %7, align 8
  call void @_ZN6hermes3hbc32UniquingStringLiteralAccumulator9addStringEN4llvh9StringRefEb(ptr noundef nonnull align 8 dereferenceable(224) %3, ptr %6, i64 %8, i1 noundef zeroext %tobool)
  ret void
}

; Function Attrs: mustprogress nounwind uwtable
define linkonce_odr noundef ptr @_ZNKSt9_Any_data9_M_accessEv(ptr noundef nonnull align 8 dereferenceable(16) %this) #0 comdat align 2 {
entry:
  %this.addr = alloca ptr, align 8
  store ptr %this, ptr %this.addr, align 8
  %this1 = load ptr, ptr %this.addr, align 8
  %arrayidx = getelementptr inbounds [16 x i8], ptr %this1, i64 0, i64 0
  ret ptr %arrayidx
}

; Function Attrs: mustprogress nounwind uwtable
define internal void @"_ZSt13__invoke_implIvRZN6hermes3hbc22generateBytecodeModuleEPNS0_6ModuleEPNS0_8FunctionES5_RKNS0_25BytecodeGenerationOptionsENS0_8OptValueIjEEPNS0_18SourceMapGeneratorESt10unique_ptrINS1_14BCProviderBaseESt14default_deleteISE_EEE3$_2JN4llvh9StringRefEbEET_St14__invoke_otherOT0_DpOT1_"(ptr noundef nonnull align 8 dereferenceable(8) %__f, ptr noundef nonnull align 8 dereferenceable(16) %__args, ptr noundef nonnull align 1 dereferenceable(1) %__args1) #0 {
entry:
  %__f.addr = alloca ptr, align 8
  %__args.addr = alloca ptr, align 8
  %__args.addr2 = alloca ptr, align 8
  %agg.tmp = alloca %"class.llvh::StringRef", align 8
  store ptr %__f, ptr %__f.addr, align 8
  store ptr %__args, ptr %__args.addr, align 8
  store ptr %__args1, ptr %__args.addr2, align 8
  %0 = load ptr, ptr %__f.addr, align 8
  %1 = load ptr, ptr %__args.addr, align 8
  call void @llvm.memcpy.p0.p0.i64(ptr align 8 %agg.tmp, ptr align 8 %1, i64 16, i1 false)
  %2 = load ptr, ptr %__args.addr2, align 8
  %3 = load i8, ptr %2, align 1
  %tobool = trunc i8 %3 to i1
  %4 = getelementptr inbounds { ptr, i64 }, ptr %agg.tmp, i32 0, i32 0
  %5 = load ptr, ptr %4, align 8
  %6 = getelementptr inbounds { ptr, i64 }, ptr %agg.tmp, i32 0, i32 1
  %7 = load i64, ptr %6, align 8
  call void @"_ZZN6hermes3hbc22generateBytecodeModuleEPNS_6ModuleEPNS_8FunctionES4_RKNS_25BytecodeGenerationOptionsENS_8OptValueIjEEPNS_18SourceMapGeneratorESt10unique_ptrINS0_14BCProviderBaseESt14default_deleteISD_EEENK3$_2clEN4llvh9StringRefEb"(ptr noundef nonnull align 8 dereferenceable(8) %0, ptr %5, i64 %7, i1 noundef zeroext %tobool)
  ret void
}

; Function Attrs: mustprogress nounwind uwtable
define internal noundef nonnull align 8 dereferenceable(8) ptr @"_ZNKSt9_Any_data9_M_accessIZN6hermes3hbc22generateBytecodeModuleEPNS1_6ModuleEPNS1_8FunctionES6_RKNS1_25BytecodeGenerationOptionsENS1_8OptValueIjEEPNS1_18SourceMapGeneratorESt10unique_ptrINS2_14BCProviderBaseESt14default_deleteISF_EEE3$_2EERKT_v"(ptr noundef nonnull align 8 dereferenceable(16) %this) #0 align 2 {
entry:
  %this.addr = alloca ptr, align 8
  store ptr %this, ptr %this.addr, align 8
  %this1 = load ptr, ptr %this.addr, align 8
  %call = call noundef ptr @_ZNKSt9_Any_data9_M_accessEv(ptr noundef nonnull align 8 dereferenceable(16) %this1) #10
  ret ptr %call
}

; Function Attrs: mustprogress nounwind uwtable
define internal void @"_ZSt10__invoke_rIvRZN6hermes3hbc22generateBytecodeModuleEPNS0_6ModuleEPNS0_8FunctionES5_RKNS0_25BytecodeGenerationOptionsENS0_8OptValueIjEEPNS0_18SourceMapGeneratorESt10unique_ptrINS1_14BCProviderBaseESt14default_deleteISE_EEE3$_2JN4llvh9StringRefEbEENSt9enable_ifIX16is_invocable_r_vIT_T0_DpT1_EESN_E4typeEOSO_DpOSP_"(ptr noundef nonnull align 8 dereferenceable(8) %__fn, ptr noundef nonnull align 8 dereferenceable(16) %__args, ptr noundef nonnull align 1 dereferenceable(1) %__args1) #0 {
entry:
  %__fn.addr = alloca ptr, align 8
  %__args.addr = alloca ptr, align 8
  %__args.addr2 = alloca ptr, align 8
  store ptr %__fn, ptr %__fn.addr, align 8
  store ptr %__args, ptr %__args.addr, align 8
  store ptr %__args1, ptr %__args.addr2, align 8
  %0 = load ptr, ptr %__fn.addr, align 8
  %1 = load ptr, ptr %__args.addr, align 8
  %2 = load ptr, ptr %__args.addr2, align 8
  call void @"_ZSt13__invoke_implIvRZN6hermes3hbc22generateBytecodeModuleEPNS0_6ModuleEPNS0_8FunctionES5_RKNS0_25BytecodeGenerationOptionsENS0_8OptValueIjEEPNS0_18SourceMapGeneratorESt10unique_ptrINS1_14BCProviderBaseESt14default_deleteISE_EEE3$_2JN4llvh9StringRefEbEET_St14__invoke_otherOT0_DpOT1_"(ptr noundef nonnull align 8 dereferenceable(8) %0, ptr noundef nonnull align 8 dereferenceable(16) %1, ptr noundef nonnull align 1 dereferenceable(1) %2)
  ret void
}

; Function Attrs: mustprogress nounwind uwtable
define internal noundef ptr @"_ZNSt14_Function_base13_Base_managerIZN6hermes3hbc22generateBytecodeModuleEPNS1_6ModuleEPNS1_8FunctionES6_RKNS1_25BytecodeGenerationOptionsENS1_8OptValueIjEEPNS1_18SourceMapGeneratorESt10unique_ptrINS2_14BCProviderBaseESt14default_deleteISF_EEE3$_2E14_M_get_pointerERKSt9_Any_data"(ptr noundef nonnull align 8 dereferenceable(16) %__source) #0 align 2 {
entry:
  %__source.addr = alloca ptr, align 8
  %__f = alloca ptr, align 8
  store ptr %__source, ptr %__source.addr, align 8
  %0 = load ptr, ptr %__source.addr, align 8
  %call = call noundef nonnull align 8 dereferenceable(8) ptr @"_ZNKSt9_Any_data9_M_accessIZN6hermes3hbc22generateBytecodeModuleEPNS1_6ModuleEPNS1_8FunctionES6_RKNS1_25BytecodeGenerationOptionsENS1_8OptValueIjEEPNS1_18SourceMapGeneratorESt10unique_ptrINS2_14BCProviderBaseESt14default_deleteISF_EEE3$_2EERKT_v"(ptr noundef nonnull align 8 dereferenceable(16) %0) #10
  store ptr %call, ptr %__f, align 8
  %1 = load ptr, ptr %__f, align 8
  ret ptr %1
}

; Function Attrs: mustprogress nounwind uwtable
define internal void @"_ZNSt17_Function_handlerIFvN4llvh9StringRefEbEZN6hermes3hbc22generateBytecodeModuleEPNS3_6ModuleEPNS3_8FunctionES8_RKNS3_25BytecodeGenerationOptionsENS3_8OptValueIjEEPNS3_18SourceMapGeneratorESt10unique_ptrINS4_14BCProviderBaseESt14default_deleteISH_EEE3$_2E9_M_invokeERKSt9_Any_dataOS1_Ob"(ptr noundef nonnull align 8 dereferenceable(16) %__functor, ptr noundef nonnull align 8 dereferenceable(16) %__args, ptr noundef nonnull align 1 dereferenceable(1) %__args1) #0 align 2 {
entry:
  %__functor.addr = alloca ptr, align 8
  %__args.addr = alloca ptr, align 8
  %__args.addr2 = alloca ptr, align 8
  store ptr %__functor, ptr %__functor.addr, align 8
  store ptr %__args, ptr %__args.addr, align 8
  store ptr %__args1, ptr %__args.addr2, align 8
  %0 = load ptr, ptr %__functor.addr, align 8
  %call = call noundef ptr @"_ZNSt14_Function_base13_Base_managerIZN6hermes3hbc22generateBytecodeModuleEPNS1_6ModuleEPNS1_8FunctionES6_RKNS1_25BytecodeGenerationOptionsENS1_8OptValueIjEEPNS1_18SourceMapGeneratorESt10unique_ptrINS2_14BCProviderBaseESt14default_deleteISF_EEE3$_2E14_M_get_pointerERKSt9_Any_data"(ptr noundef nonnull align 8 dereferenceable(16) %0) #10
  %1 = load ptr, ptr %__args.addr, align 8
  %2 = load ptr, ptr %__args.addr2, align 8
  call void @"_ZSt10__invoke_rIvRZN6hermes3hbc22generateBytecodeModuleEPNS0_6ModuleEPNS0_8FunctionES5_RKNS0_25BytecodeGenerationOptionsENS0_8OptValueIjEEPNS0_18SourceMapGeneratorESt10unique_ptrINS1_14BCProviderBaseESt14default_deleteISE_EEE3$_2JN4llvh9StringRefEbEENSt9enable_ifIX16is_invocable_r_vIT_T0_DpT1_EESN_E4typeEOSO_DpOSP_"(ptr noundef nonnull align 8 dereferenceable(8) %call, ptr noundef nonnull align 8 dereferenceable(16) %1, ptr noundef nonnull align 1 dereferenceable(1) %2)
  ret void
}