; Function Attrs: mustprogress nounwind uwtable
define internal void @"_ZNSt17_Function_handlerIFvN4llvh9StringRefEbEZN6hermes3hbc22generateBytecodeModuleEPNS3_6ModuleEPNS3_8FunctionES8_RKNS3_25BytecodeGenerationOptionsENS3_8OptValueIjEEPNS3_18SourceMapGeneratorESt10unique_ptrINS4_14BCProviderBaseESt14default_deleteISH_EEE3$_2E9_M_invokeERKSt9_Any_dataOS1_Ob"(ptr nocapture noundef nonnull readonly align 8 dereferenceable(16) %__functor, ptr nocapture noundef nonnull readonly align 8 dereferenceable(16) %__args, ptr nocapture noundef nonnull readonly align 1 dereferenceable(1) %__args1) #0 align 2 {
entry:
  %call.val = load ptr, ptr %__functor, align 8
  %__args.val = load ptr, ptr %__args, align 8
  %0 = getelementptr inbounds i8, ptr %__args, i64 8
  %__args.val1 = load i64, ptr %0, align 8
  %__args1.val = load i8, ptr %__args1, align 1
  %1 = and i8 %__args1.val, 1
  %tobool.i.i = icmp ne i8 %1, 0
  tail call void @_ZN6hermes3hbc32UniquingStringLiteralAccumulator9addStringEN4llvh9StringRefEb(ptr noundef nonnull align 8 dereferenceable(224) %call.val, ptr %__args.val, i64 %__args.val1, i1 noundef zeroext %tobool.i.i)
  ret void
}